target datalayout = "e-m:e-p270:32:32-p271:32:32-p272:64:64-i64:64-i128:128-f80:128-n8:16:32:64-S128"
target triple = "x86_64-unknown-linux-gnu"

%"class.facebook::velox::memory::MemoryManager" = type { i64, %"class.std::shared_ptr", %"class.std::unique_ptr", i16, i8, i8, i8, %"class.std::function", %"class.std::shared_ptr.2", %"class.std::vector", %"class.folly::SharedMutexImpl", %"class.std::unordered_map" }
%"class.std::shared_ptr" = type { %"class.std::__shared_ptr" }
%"class.std::__shared_ptr" = type { ptr, %"class.std::__shared_count" }
%"class.std::__shared_count" = type { ptr }
%"class.std::unique_ptr" = type { %"struct.std::__uniq_ptr_data" }
%"struct.std::__uniq_ptr_data" = type { %"class.std::__uniq_ptr_impl" }
%"class.std::__uniq_ptr_impl" = type { %"class.std::tuple" }
%"class.std::tuple" = type { %"struct.std::_Tuple_impl" }
%"struct.std::_Tuple_impl" = type { %"struct.std::_Head_base.1" }
%"struct.std::_Head_base.1" = type { ptr }
%"class.std::function" = type { %"class.std::_Function_base", ptr }
%"class.std::_Function_base" = type { %"union.std::_Any_data", ptr }
%"union.std::_Any_data" = type { %"union.std::_Nocopy_types" }
%"union.std::_Nocopy_types" = type { { i64, i64 } }
%"class.std::shared_ptr.2" = type { %"class.std::__shared_ptr.3" }
%"class.std::__shared_ptr.3" = type { ptr, %"class.std::__shared_count" }
%"class.std::vector" = type { %"struct.std::_Vector_base" }
%"struct.std::_Vector_base" = type { %"struct.std::_Vector_base<std::shared_ptr<facebook::velox::memory::MemoryPool>, std::allocator<std::shared_ptr<facebook::velox::memory::MemoryPool>>>::_Vector_impl" }
%"struct.std::_Vector_base<std::shared_ptr<facebook::velox::memory::MemoryPool>, std::allocator<std::shared_ptr<facebook::velox::memory::MemoryPool>>>::_Vector_impl" = type { %"struct.std::_Vector_base<std::shared_ptr<facebook::velox::memory::MemoryPool>, std::allocator<std::shared_ptr<facebook::velox::memory::MemoryPool>>>::_Vector_impl_data" }
%"struct.std::_Vector_base<std::shared_ptr<facebook::velox::memory::MemoryPool>, std::allocator<std::shared_ptr<facebook::velox::memory::MemoryPool>>>::_Vector_impl_data" = type { ptr, ptr, ptr }
%"class.folly::SharedMutexImpl" = type { %"struct.std::atomic" }
%"struct.std::atomic" = type { %"struct.std::__atomic_base" }
%"struct.std::__atomic_base" = type { i32 }
%"class.std::unordered_map" = type { %"class.std::_Hashtable" }
%"class.std::_Hashtable" = type { ptr, i64, %"struct.std::__detail::_Hash_node_base", i64, %"struct.std::__detail::_Prime_rehash_policy", ptr }
%"struct.std::__detail::_Hash_node_base" = type { ptr }
%"struct.std::__detail::_Prime_rehash_policy" = type { float, i64 }

@_ZZN8facebook5velox6memory13MemoryManager11getInstanceERKNS1_20MemoryManagerOptionsEE7manager = internal global %"class.facebook::velox::memory::MemoryManager" zeroinitializer, align 8
@_ZGVZN8facebook5velox6memory13MemoryManager11getInstanceERKNS1_20MemoryManagerOptionsEE7manager = internal global i64 0, align 8
@__dso_handle = external hidden global i8
@_ZN8facebook5velox6memory13MemoryManagerC1ERKNS1_20MemoryManagerOptionsE = unnamed_addr alias void (ptr, ptr), ptr @_ZN8facebook5velox6memory13MemoryManagerC2ERKNS1_20MemoryManagerOptionsE
@_ZN8facebook5velox6memory13MemoryManagerD1Ev = unnamed_addr alias void (ptr), ptr @_ZN8facebook5velox6memory13MemoryManagerD2Ev

; Function Attrs: mustprogress uwtable
define noundef nonnull align 8 dereferenceable(176) ptr @_ZN8facebook5velox6memory13MemoryManager11getInstanceERKNS1_20MemoryManagerOptionsE(ptr noundef nonnull align 8 dereferenceable(128) %options) #0 align 2 personality ptr @__gxx_personality_v0 {
entry:
  %options.addr = alloca ptr, align 8
  %exn.slot = alloca ptr, align 8
  %ehselector.slot = alloca i32, align 4
  store ptr %options, ptr %options.addr, align 8
  %0 = load atomic i8, ptr @_ZGVZN8facebook5velox6memory13MemoryManager11getInstanceERKNS1_20MemoryManagerOptionsEE7manager acquire, align 8
  %guard.uninitialized = icmp eq i8 %0, 0
  br i1 %guard.uninitialized, label %init.check, label %init.end, !prof !12

init.check:                                       ; preds = %entry
  %1 = call i32 @__cxa_guard_acquire(ptr @_ZGVZN8facebook5velox6memory13MemoryManager11getInstanceERKNS1_20MemoryManagerOptionsEE7manager) #6
  %tobool = icmp ne i32 %1, 0
  br i1 %tobool, label %init, label %init.end

init:                                             ; preds = %init.check
  %2 = load ptr, ptr %options.addr, align 8
  invoke void @_ZN8facebook5velox6memory13MemoryManagerC1ERKNS1_20MemoryManagerOptionsE(ptr noundef nonnull align 8 dereferenceable(176) @_ZZN8facebook5velox6memory13MemoryManager11getInstanceERKNS1_20MemoryManagerOptionsEE7manager, ptr noundef nonnull align 8 dereferenceable(128) %2)
          to label %invoke.cont unwind label %lpad

invoke.cont:                                      ; preds = %init
  %3 = call i32 @__cxa_atexit(ptr @_ZN8facebook5velox6memory13MemoryManagerD1Ev, ptr @_ZZN8facebook5velox6memory13MemoryManager11getInstanceERKNS1_20MemoryManagerOptionsEE7manager, ptr @__dso_handle) #6
  call void @__cxa_guard_release(ptr @_ZGVZN8facebook5velox6memory13MemoryManager11getInstanceERKNS1_20MemoryManagerOptionsEE7manager) #6
  br label %init.end

init.end:                                         ; preds = %invoke.cont, %init.check, %entry
  ret ptr @_ZZN8facebook5velox6memory13MemoryManager11getInstanceERKNS1_20MemoryManagerOptionsEE7manager

lpad:                                             ; preds = %init
  %4 = landingpad { ptr, i32 }
          cleanup
  %5 = extractvalue { ptr, i32 } %4, 0
  store ptr %5, ptr %exn.slot, align 8
  %6 = extractvalue { ptr, i32 } %4, 1
  store i32 %6, ptr %ehselector.slot, align 4
  call void @__cxa_guard_abort(ptr @_ZGVZN8facebook5velox6memory13MemoryManager11getInstanceERKNS1_20MemoryManagerOptionsEE7manager) #6
  br label %eh.resume

eh.resume:                                        ; preds = %lpad
  %exn = load ptr, ptr %exn.slot, align 8
  %sel = load i32, ptr %ehselector.slot, align 4
  %lpad.val = insertvalue { ptr, i32 } poison, ptr %exn, 0
  %lpad.val1 = insertvalue { ptr, i32 } %lpad.val, i32 %sel, 1
  resume { ptr, i32 } %lpad.val1
}